target datalayout = "e-m:e-p270:32:32-p271:32:32-p272:64:64-i64:64-i128:128-f80:128-n8:16:32:64-S128"
target triple = "x86_64-pc-linux-gnu"

%"class.llvm::MachineInstr" = type <{ %"class.llvm::ilist_node_with_parent", ptr, ptr, ptr, [3 x i8], %"class.llvm::ArrayRecycler<llvm::MachineOperand>::Capacity", i32, %"class.llvm::PointerSumType", %"class.llvm::DebugLoc", i32, i16, [2 x i8] }>
%"class.llvm::ilist_node_with_parent" = type { %"class.llvm::ilist_node" }
%"class.llvm::ilist_node" = type { %"class.llvm::ilist_node_impl" }
%"class.llvm::ilist_node_impl" = type { %"class.llvm::ilist_node_base" }
%"class.llvm::ilist_node_base" = type { %"class.llvm::ilist_detail::node_base_prevnext" }
%"class.llvm::ilist_detail::node_base_prevnext" = type { %"class.llvm::PointerIntPair", ptr }
%"class.llvm::PointerIntPair" = type { %"struct.llvm::detail::PunnedPointer" }
%"struct.llvm::detail::PunnedPointer" = type { [8 x i8] }
%"class.llvm::ArrayRecycler<llvm::MachineOperand>::Capacity" = type { i8 }
%"class.llvm::PointerSumType" = type { %"union.llvm::PointerSumType<llvm::MachineInstr::ExtraInfoInlineKinds, llvm::PointerSumTypeMember<0, llvm::MachineMemOperand *>, llvm::PointerSumTypeMember<1, llvm::MCSymbol *>, llvm::PointerSumTypeMember<2, llvm::MCSymbol *>, llvm::PointerSumTypeMember<3, llvm::MachineInstr::ExtraInfo *>>::StorageT" }
%"union.llvm::PointerSumType<llvm::MachineInstr::ExtraInfoInlineKinds, llvm::PointerSumTypeMember<0, llvm::MachineMemOperand *>, llvm::PointerSumTypeMember<1, llvm::MCSymbol *>, llvm::PointerSumTypeMember<2, llvm::MCSymbol *>, llvm::PointerSumTypeMember<3, llvm::MachineInstr::ExtraInfo *>>::StorageT" = type { i64 }
%"class.llvm::DebugLoc" = type { %"class.llvm::TypedTrackingMDRef" }
%"class.llvm::TypedTrackingMDRef" = type { %"class.llvm::TrackingMDRef" }
%"class.llvm::TrackingMDRef" = type { ptr }
%"class.llvm::MachineOperand" = type { i32, %union.anon.79, ptr, %"union.llvm::MachineOperand::ContentsUnion" }
%union.anon.79 = type { i32 }
%"union.llvm::MachineOperand::ContentsUnion" = type { %"class.llvm::ArrayRef.80" }
%"class.llvm::ArrayRef.80" = type { ptr, i64 }

; Function Attrs: mustprogress nounwind uwtable
define linkonce_odr hidden noundef i64 @_ZNK4llvm14MachineOperand6getImmEv(ptr noundef nonnull align 8 dereferenceable(32) %0) #0 comdat align 2 {
  %2 = alloca ptr, align 8
  store ptr %0, ptr %2, align 8
  %3 = load ptr, ptr %2, align 8
  %4 = getelementptr inbounds nuw %"class.llvm::MachineOperand", ptr %3, i32 0, i32 3
  %5 = load i64, ptr %4, align 8
  ret i64 %5
}

; Function Attrs: mustprogress nounwind uwtable
define linkonce_odr hidden noundef zeroext i1 @_ZNK4llvm14MachineOperand5isImmEv(ptr noundef nonnull align 8 dereferenceable(32) %0) #0 comdat align 2 {
  %2 = alloca ptr, align 8
  store ptr %0, ptr %2, align 8
  %3 = load ptr, ptr %2, align 8
  %4 = load i32, ptr %3, align 8
  %5 = and i32 %4, 255
  %6 = icmp eq i32 %5, 1
  ret i1 %6
}

; Function Attrs: mustprogress nounwind uwtable
define linkonce_odr hidden noundef zeroext i1 @_ZNK4llvm14MachineOperand5isRegEv(ptr noundef nonnull align 8 dereferenceable(32) %0) #0 comdat align 2 {
  %2 = alloca ptr, align 8
  store ptr %0, ptr %2, align 8
  %3 = load ptr, ptr %2, align 8
  %4 = load i32, ptr %3, align 8
  %5 = and i32 %4, 255
  %6 = icmp eq i32 %5, 0
  ret i1 %6
}

; Function Attrs: mustprogress nounwind uwtable
define linkonce_odr hidden noundef nonnull align 8 dereferenceable(32) ptr @_ZNK4llvm12MachineInstr10getOperandEj(ptr noundef nonnull align 8 dereferenceable(70) %0, i32 noundef %1) #0 comdat align 2 {
  %3 = alloca ptr, align 8
  %4 = alloca i32, align 4
  store ptr %0, ptr %3, align 8
  store i32 %1, ptr %4, align 4
  %5 = load ptr, ptr %3, align 8
  %6 = getelementptr inbounds nuw %"class.llvm::MachineInstr", ptr %5, i32 0, i32 3
  %7 = load ptr, ptr %6, align 8
  %8 = load i32, ptr %4, align 4
  %9 = zext i32 %8 to i64
  %10 = getelementptr inbounds %"class.llvm::MachineOperand", ptr %7, i64 %9
  ret ptr %10
}

; Function Attrs: mustprogress nounwind uwtable
define linkonce_odr hidden noundef i32 @_ZNK4llvm12MachineInstr9getOpcodeEv(ptr noundef nonnull align 8 dereferenceable(70) %0) #0 comdat align 2 {
  %2 = alloca ptr, align 8
  store ptr %0, ptr %2, align 8
  %3 = load ptr, ptr %2, align 8
  %4 = getelementptr inbounds nuw %"class.llvm::MachineInstr", ptr %3, i32 0, i32 10
  %5 = load i16, ptr %4, align 4
  %6 = zext i16 %5 to i32
  ret i32 %6
}

; Function Attrs: mustprogress nounwind uwtable
define dso_local noundef zeroext i1 @_ZN4llvm5RISCV8isZEXT_BERKNS_12MachineInstrE(ptr noundef nonnull align 8 dereferenceable(70) %0) #0 {
  %2 = alloca ptr, align 8
  store ptr %0, ptr %2, align 8
  %3 = load ptr, ptr %2, align 8
  %4 = call noundef i32 @_ZNK4llvm12MachineInstr9getOpcodeEv(ptr noundef nonnull align 8 dereferenceable(70) %3)
  %5 = icmp eq i32 %4, 12069
  br i1 %5, label %6, label %19

6:                                                ; preds = %1
  %7 = load ptr, ptr %2, align 8
  %8 = call noundef nonnull align 8 dereferenceable(32) ptr @_ZNK4llvm12MachineInstr10getOperandEj(ptr noundef nonnull align 8 dereferenceable(70) %7, i32 noundef 1)
  %9 = call noundef zeroext i1 @_ZNK4llvm14MachineOperand5isRegEv(ptr noundef nonnull align 8 dereferenceable(32) %8)
  br i1 %9, label %10, label %19

10:                                               ; preds = %6
  %11 = load ptr, ptr %2, align 8
  %12 = call noundef nonnull align 8 dereferenceable(32) ptr @_ZNK4llvm12MachineInstr10getOperandEj(ptr noundef nonnull align 8 dereferenceable(70) %11, i32 noundef 2)
  %13 = call noundef zeroext i1 @_ZNK4llvm14MachineOperand5isImmEv(ptr noundef nonnull align 8 dereferenceable(32) %12)
  br i1 %13, label %14, label %19

14:                                               ; preds = %10
  %15 = load ptr, ptr %2, align 8
  %16 = call noundef nonnull align 8 dereferenceable(32) ptr @_ZNK4llvm12MachineInstr10getOperandEj(ptr noundef nonnull align 8 dereferenceable(70) %15, i32 noundef 2)
  %17 = call noundef i64 @_ZNK4llvm14MachineOperand6getImmEv(ptr noundef nonnull align 8 dereferenceable(32) %16)
  %18 = icmp eq i64 %17, 255
  br label %19

19:                                               ; preds = %14, %10, %6, %1
  %20 = phi i1 [ false, %10 ], [ false, %6 ], [ false, %1 ], [ %18, %14 ]
  ret i1 %20
}